target datalayout = "e-m:e-p270:32:32-p271:32:32-p272:64:64-i64:64-i128:128-f80:128-n8:16:32:64-S128"
target triple = "x86_64-pc-linux-gnu"

%"class.llvm::StringRef" = type { ptr, i64 }
%"class.llvm::SmallVector" = type { %"class.llvm::SmallVectorImpl" }
%"class.llvm::SmallVectorImpl" = type { %"class.llvm::SmallVectorTemplateBase" }
%"class.llvm::SmallVectorTemplateBase" = type { %"class.llvm::SmallVectorTemplateCommon" }
%"class.llvm::SmallVectorTemplateCommon" = type { %"class.llvm::SmallVectorBase" }
%"class.llvm::SmallVectorBase" = type { ptr, i32, i32 }
%"struct.clang::ento::CheckerInfo" = type { ptr, ptr, %"class.llvm::StringRef", %"class.llvm::StringRef", %"class.llvm::StringRef", %"class.llvm::SmallVector.57", i8, i32, %"class.llvm::SmallVector", %"class.llvm::SmallVector" }
%"class.llvm::SmallVector.57" = type { %"class.llvm::SmallVectorImpl.58" }
%"class.llvm::SmallVectorImpl.58" = type { %"class.llvm::SmallVectorTemplateBase.59" }
%"class.llvm::SmallVectorTemplateBase.59" = type { %"class.llvm::SmallVectorTemplateCommon.60" }
%"class.llvm::SmallVectorTemplateCommon.60" = type { %"class.llvm::SmallVectorBase" }
%class.anon = type { ptr }

; Function Attrs: mustprogress nounwind uwtable
define linkonce_odr hidden noundef zeroext i1 @_ZNK5clang4ento11CheckerInfo10isDisabledERKNS0_14CheckerManagerE(ptr noundef nonnull align 8 dereferenceable(120) %0, ptr noundef nonnull align 8 dereferenceable(1552) %1) #0 comdat align 2 {
  %3 = alloca ptr, align 8
  %4 = alloca ptr, align 8
  store ptr %0, ptr %3, align 8
  store ptr %1, ptr %4, align 8
  %5 = load ptr, ptr %3, align 8
  %6 = getelementptr inbounds nuw %"struct.clang::ento::CheckerInfo", ptr %5, i32 0, i32 7
  %7 = load i32, ptr %6, align 4
  %8 = icmp eq i32 %7, 1
  br i1 %8, label %15, label %9

9:                                                ; preds = %2
  %10 = getelementptr inbounds nuw %"struct.clang::ento::CheckerInfo", ptr %5, i32 0, i32 1
  %11 = load ptr, ptr %10, align 8
  %12 = load ptr, ptr %4, align 8
  %13 = call noundef zeroext i1 %11(ptr noundef nonnull align 8 dereferenceable(1552) %12)
  %14 = xor i1 %13, true
  br label %15

15:                                               ; preds = %9, %2
  %16 = phi i1 [ true, %2 ], [ %14, %9 ]
  ret i1 %16
}

; Function Attrs: mustprogress nounwind uwtable
define internal noundef zeroext i1 @"_ZZN5clang4ento15CheckerRegistry18initializeRegistryERKNS0_14CheckerManagerEENK3$_0clEPKNS0_11CheckerInfoE"(ptr noundef nonnull align 8 dereferenceable(8) %0, ptr noundef %1) #0 align 2 {
  %3 = alloca ptr, align 8
  %4 = alloca ptr, align 8
  store ptr %0, ptr %3, align 8
  store ptr %1, ptr %4, align 8
  %5 = load ptr, ptr %3, align 8
  %6 = load ptr, ptr %4, align 8
  %7 = getelementptr inbounds nuw %class.anon, ptr %5, i32 0, i32 0
  %8 = load ptr, ptr %7, align 8
  %9 = call noundef zeroext i1 @_ZNK5clang4ento11CheckerInfo10isDisabledERKNS0_14CheckerManagerE(ptr noundef nonnull align 8 dereferenceable(120) %6, ptr noundef nonnull align 8 dereferenceable(1552) %8)
  %10 = xor i1 %9, true
  ret i1 %10
}

; Function Attrs: mustprogress nounwind uwtable
define linkonce_odr hidden noundef ptr @_ZNK4llvm25SmallVectorTemplateCommonIPKN5clang4ento11CheckerInfoEvE3endEv(ptr noundef nonnull align 8 dereferenceable(16) %0) #0 comdat align 2 {
  %2 = alloca ptr, align 8
  store ptr %0, ptr %2, align 8
  %3 = load ptr, ptr %2, align 8
  %4 = call noundef ptr @_ZNK4llvm25SmallVectorTemplateCommonIPKN5clang4ento11CheckerInfoEvE5beginEv(ptr noundef nonnull align 8 dereferenceable(16) %3)
  %5 = call noundef i64 @_ZNK4llvm15SmallVectorBaseIjE4sizeEv(ptr noundef nonnull align 8 dereferenceable(16) %3)
  %6 = getelementptr inbounds ptr, ptr %4, i64 %5
  ret ptr %6
}

; Function Attrs: mustprogress nounwind uwtable
define linkonce_odr hidden noundef ptr @_ZNK4llvm25SmallVectorTemplateCommonIPKN5clang4ento11CheckerInfoEvE5beginEv(ptr noundef nonnull align 8 dereferenceable(16) %0) #0 comdat align 2 {
  %2 = alloca ptr, align 8
  store ptr %0, ptr %2, align 8
  %3 = load ptr, ptr %2, align 8
  %4 = getelementptr inbounds nuw %"class.llvm::SmallVectorBase", ptr %3, i32 0, i32 0
  %5 = load ptr, ptr %4, align 8
  ret ptr %5
}

; Function Attrs: mustprogress nounwind uwtable
define internal noundef zeroext i1 @"_ZL25collectStrongDependenciesIZN5clang4ento15CheckerRegistry18initializeRegistryERKNS1_14CheckerManagerEE3$_0EbRKN4llvm11SmallVectorIPKNS1_11CheckerInfoELj0EEES5_RNS7_9SetVectorISB_SC_NS7_8DenseSetISB_NS7_12DenseMapInfoISB_vEEEELj0EEET_"(ptr noundef nonnull align 8 dereferenceable(16) %0, ptr noundef nonnull align 8 dereferenceable(1552) %1, ptr noundef nonnull align 8 dereferenceable(40) %2, ptr %3) #0 {
  %5 = alloca i1, align 1
  %6 = alloca %class.anon, align 8
  %7 = alloca ptr, align 8
  %8 = alloca ptr, align 8
  %9 = alloca ptr, align 8
  %10 = alloca ptr, align 8
  %11 = alloca ptr, align 8
  %12 = alloca ptr, align 8
  %13 = alloca ptr, align 8
  %14 = alloca %class.anon, align 8
  %15 = getelementptr inbounds nuw %class.anon, ptr %6, i32 0, i32 0
  store ptr %3, ptr %15, align 8
  store ptr %0, ptr %7, align 8
  store ptr %1, ptr %8, align 8
  store ptr %2, ptr %9, align 8
  %16 = load ptr, ptr %7, align 8
  store ptr %16, ptr %10, align 8
  %17 = load ptr, ptr %10, align 8
  %18 = call noundef ptr @_ZNK4llvm25SmallVectorTemplateCommonIPKN5clang4ento11CheckerInfoEvE5beginEv(ptr noundef nonnull align 8 dereferenceable(16) %17)
  store ptr %18, ptr %11, align 8
  %19 = load ptr, ptr %10, align 8
  %20 = call noundef ptr @_ZNK4llvm25SmallVectorTemplateCommonIPKN5clang4ento11CheckerInfoEvE3endEv(ptr noundef nonnull align 8 dereferenceable(16) %19)
  store ptr %20, ptr %12, align 8
  br label %21

21:                                               ; preds = %43, %4
  %22 = load ptr, ptr %11, align 8
  %23 = load ptr, ptr %12, align 8
  %24 = icmp ne ptr %22, %23
  br i1 %24, label %25, label %46

25:                                               ; preds = %21
  %26 = load ptr, ptr %11, align 8
  %27 = load ptr, ptr %26, align 8
  store ptr %27, ptr %13, align 8
  %28 = load ptr, ptr %13, align 8
  %29 = call noundef zeroext i1 @"_ZZN5clang4ento15CheckerRegistry18initializeRegistryERKNS0_14CheckerManagerEENK3$_0clEPKNS0_11CheckerInfoE"(ptr noundef nonnull align 8 dereferenceable(8) %6, ptr noundef %28)
  br i1 %29, label %31, label %30

30:                                               ; preds = %25
  store i1 false, ptr %5, align 1
  br label %47

31:                                               ; preds = %25
  %32 = load ptr, ptr %13, align 8
  %33 = getelementptr inbounds nuw %"struct.clang::ento::CheckerInfo", ptr %32, i32 0, i32 8
  %34 = load ptr, ptr %8, align 8
  %35 = load ptr, ptr %9, align 8
  call void @llvm.memcpy.p0.p0.i64(ptr align 8 %14, ptr align 8 %6, i64 8, i1 false)
  %36 = getelementptr inbounds nuw %class.anon, ptr %14, i32 0, i32 0
  %37 = load ptr, ptr %36, align 8
  %38 = call noundef zeroext i1 @"_ZL25collectStrongDependenciesIZN5clang4ento15CheckerRegistry18initializeRegistryERKNS1_14CheckerManagerEE3$_0EbRKN4llvm11SmallVectorIPKNS1_11CheckerInfoELj0EEES5_RNS7_9SetVectorISB_SC_NS7_8DenseSetISB_NS7_12DenseMapInfoISB_vEEEELj0EEET_"(ptr noundef nonnull align 8 dereferenceable(16) %33, ptr noundef nonnull align 8 dereferenceable(1552) %34, ptr noundef nonnull align 8 dereferenceable(40) %35, ptr %37)
  br i1 %38, label %40, label %39

39:                                               ; preds = %31
  store i1 false, ptr %5, align 1
  br label %47

40:                                               ; preds = %31
  %41 = load ptr, ptr %9, align 8
  %42 = call noundef zeroext i1 @_ZN4llvm9SetVectorIPKN5clang4ento11CheckerInfoENS_11SmallVectorIS5_Lj0EEENS_8DenseSetIS5_NS_12DenseMapInfoIS5_vEEEELj0EE6insertERKS5_(ptr noundef nonnull align 8 dereferenceable(40) %41, ptr noundef nonnull align 8 dereferenceable(8) %13)
  br label %43

43:                                               ; preds = %40
  %44 = load ptr, ptr %11, align 8
  %45 = getelementptr inbounds ptr, ptr %44, i32 1
  store ptr %45, ptr %11, align 8
  br label %21

46:                                               ; preds = %21
  store i1 true, ptr %5, align 1
  br label %47

47:                                               ; preds = %46, %39, %30
  %48 = load i1, ptr %5, align 1
  ret i1 %48
}