; Function Attrs: mustprogress nounwind uwtable
define internal fastcc noundef zeroext i1 @"_ZL25collectStrongDependenciesIZN5clang4ento15CheckerRegistry18initializeRegistryERKNS1_14CheckerManagerEE3$_0EbRKN4llvm11SmallVectorIPKNS1_11CheckerInfoELj0EEES5_RNS7_9SetVectorISB_SC_NS7_8DenseSetISB_NS7_12DenseMapInfoISB_vEEEELj0EEET_"(ptr noundef nonnull align 8 dereferenceable(16) %0, ptr noundef nonnull align 8 dereferenceable(40) %1, ptr %2) unnamed_addr #0 {
  %4 = alloca ptr, align 8
  %5 = load ptr, ptr %0, align 8
  %6 = tail call noundef i64 @_ZNK4llvm15SmallVectorBaseIjE4sizeEv(ptr noundef nonnull align 8 dereferenceable(16) %0) #16
  %7 = getelementptr inbounds ptr, ptr %5, i64 %6
  %.not1 = icmp eq i64 %6, 0
  br i1 %.not1, label %"_ZZN5clang4ento15CheckerRegistry18initializeRegistryERKNS0_14CheckerManagerEENK3$_0clEPKNS0_11CheckerInfoE.exit.thread", label %.lr.ph

.lr.ph:                                           ; preds = %3, %19
  %.0112 = phi ptr [ %21, %19 ], [ %5, %3 ]
  %8 = load ptr, ptr %.0112, align 8
  store ptr %8, ptr %4, align 8
  %9 = getelementptr inbounds nuw i8, ptr %8, i64 84
  %10 = load i32, ptr %9, align 4
  %11 = icmp eq i32 %10, 1
  br i1 %11, label %"_ZZN5clang4ento15CheckerRegistry18initializeRegistryERKNS0_14CheckerManagerEENK3$_0clEPKNS0_11CheckerInfoE.exit.thread", label %"_ZZN5clang4ento15CheckerRegistry18initializeRegistryERKNS0_14CheckerManagerEENK3$_0clEPKNS0_11CheckerInfoE.exit"

"_ZZN5clang4ento15CheckerRegistry18initializeRegistryERKNS0_14CheckerManagerEENK3$_0clEPKNS0_11CheckerInfoE.exit": ; preds = %.lr.ph
  %12 = getelementptr inbounds nuw i8, ptr %8, i64 8
  %13 = load ptr, ptr %12, align 8
  %14 = call noundef zeroext i1 %13(ptr noundef nonnull align 8 dereferenceable(1552) %2) #16
  br i1 %14, label %15, label %"_ZZN5clang4ento15CheckerRegistry18initializeRegistryERKNS0_14CheckerManagerEENK3$_0clEPKNS0_11CheckerInfoE.exit.thread"

15:                                               ; preds = %"_ZZN5clang4ento15CheckerRegistry18initializeRegistryERKNS0_14CheckerManagerEENK3$_0clEPKNS0_11CheckerInfoE.exit"
  %16 = load ptr, ptr %4, align 8
  %17 = getelementptr inbounds nuw i8, ptr %16, i64 88
  %18 = call fastcc noundef zeroext i1 @"_ZL25collectStrongDependenciesIZN5clang4ento15CheckerRegistry18initializeRegistryERKNS1_14CheckerManagerEE3$_0EbRKN4llvm11SmallVectorIPKNS1_11CheckerInfoELj0EEES5_RNS7_9SetVectorISB_SC_NS7_8DenseSetISB_NS7_12DenseMapInfoISB_vEEEELj0EEET_"(ptr noundef nonnull align 8 dereferenceable(16) %17, ptr noundef nonnull align 8 dereferenceable(40) %1, ptr %2)
  br i1 %18, label %19, label %"_ZZN5clang4ento15CheckerRegistry18initializeRegistryERKNS0_14CheckerManagerEENK3$_0clEPKNS0_11CheckerInfoE.exit.thread"

19:                                               ; preds = %15
  %20 = call noundef zeroext i1 @_ZN4llvm9SetVectorIPKN5clang4ento11CheckerInfoENS_11SmallVectorIS5_Lj0EEENS_8DenseSetIS5_NS_12DenseMapInfoIS5_vEEEELj0EE6insertERKS5_(ptr noundef nonnull align 8 dereferenceable(40) %1, ptr noundef nonnull align 8 dereferenceable(8) %4)
  %21 = getelementptr inbounds i8, ptr %.0112, i64 8
  %.not = icmp eq ptr %21, %7
  br i1 %.not, label %"_ZZN5clang4ento15CheckerRegistry18initializeRegistryERKNS0_14CheckerManagerEENK3$_0clEPKNS0_11CheckerInfoE.exit.thread", label %.lr.ph

"_ZZN5clang4ento15CheckerRegistry18initializeRegistryERKNS0_14CheckerManagerEENK3$_0clEPKNS0_11CheckerInfoE.exit.thread": ; preds = %"_ZZN5clang4ento15CheckerRegistry18initializeRegistryERKNS0_14CheckerManagerEENK3$_0clEPKNS0_11CheckerInfoE.exit", %15, %19, %.lr.ph, %3
  %.not.lcssa = phi i1 [ true, %3 ], [ false, %.lr.ph ], [ true, %19 ], [ false, %15 ], [ false, %"_ZZN5clang4ento15CheckerRegistry18initializeRegistryERKNS0_14CheckerManagerEENK3$_0clEPKNS0_11CheckerInfoE.exit" ]
  ret i1 %.not.lcssa
}